target datalayout = "e-m:e-p270:32:32-p271:32:32-p272:64:64-i64:64-i128:128-f80:128-n8:16:32:64-S128"
target triple = "x86_64-pc-linux-gnu"

%"class.std::vector.8" = type { %"struct.std::_Vector_base.9" }
%"struct.std::_Vector_base.9" = type { %"struct.std::_Vector_base<int, std::allocator<int>>::_Vector_impl" }
%"struct.std::_Vector_base<int, std::allocator<int>>::_Vector_impl" = type { %"struct.std::_Vector_base<int, std::allocator<int>>::_Vector_impl_data" }
%"struct.std::_Vector_base<int, std::allocator<int>>::_Vector_impl_data" = type { ptr, ptr, ptr }
%"struct.Yosys::RTLIL::IdString" = type { i32 }
%"struct.Yosys::hashlib::hash_ops.30" = type { i8 }
%"struct.std::pair" = type { %"struct.Yosys::RTLIL::IdString", [4 x i8], %"struct.(anonymous namespace)::LUTType" }
%"struct.(anonymous namespace)::LUTType" = type { %"class.Yosys::hashlib::dict.86", %"struct.Yosys::RTLIL::IdString", [4 x i8] }
%"class.Yosys::hashlib::dict.86" = type <{ %"class.std::vector.8", %"class.std::vector.87", %"struct.Yosys::hashlib::hash_ops.30", [7 x i8] }>
%"class.std::vector.87" = type { %"struct.std::_Vector_base.88" }
%"struct.std::_Vector_base.88" = type { %"struct.std::_Vector_base<Yosys::hashlib::dict<Yosys::RTLIL::IdString, (anonymous namespace)::LUTPin>::entry_t, std::allocator<Yosys::hashlib::dict<Yosys::RTLIL::IdString, (anonymous namespace)::LUTPin>::entry_t>>::_Vector_impl" }
%"struct.std::_Vector_base<Yosys::hashlib::dict<Yosys::RTLIL::IdString, (anonymous namespace)::LUTPin>::entry_t, std::allocator<Yosys::hashlib::dict<Yosys::RTLIL::IdString, (anonymous namespace)::LUTPin>::entry_t>>::_Vector_impl" = type { %"struct.std::_Vector_base<Yosys::hashlib::dict<Yosys::RTLIL::IdString, (anonymous namespace)::LUTPin>::entry_t, std::allocator<Yosys::hashlib::dict<Yosys::RTLIL::IdString, (anonymous namespace)::LUTPin>::entry_t>>::_Vector_impl_data" }
%"struct.std::_Vector_base<Yosys::hashlib::dict<Yosys::RTLIL::IdString, (anonymous namespace)::LUTPin>::entry_t, std::allocator<Yosys::hashlib::dict<Yosys::RTLIL::IdString, (anonymous namespace)::LUTPin>::entry_t>>::_Vector_impl_data" = type { ptr, ptr, ptr }
%"struct.Yosys::hashlib::dict<Yosys::RTLIL::IdString, (anonymous namespace)::LUTType>::entry_t" = type { %"struct.std::pair", i32, [4 x i8] }

@_ZN5Yosys5RTLIL8IdString24global_refcount_storage_E = external global %"class.std::vector.8", align 8

; Function Attrs: mustprogress nounwind uwtable
define linkonce_odr noundef nonnull align 4 dereferenceable(4) ptr @_ZNSt6vectorIiSaIiEEixEm(ptr noundef nonnull align 8 dereferenceable(24) %0, i64 noundef %1) #5 comdat align 2 {
  %3 = alloca ptr, align 8
  %4 = alloca i64, align 8
  store ptr %0, ptr %3, align 8
  store i64 %1, ptr %4, align 8
  %5 = load ptr, ptr %3, align 8
  %6 = getelementptr inbounds %"struct.std::_Vector_base.9", ptr %5, i32 0, i32 0
  %7 = getelementptr inbounds %"struct.std::_Vector_base<int, std::allocator<int>>::_Vector_impl_data", ptr %6, i32 0, i32 0
  %8 = load ptr, ptr %7, align 8
  %9 = load i64, ptr %4, align 8
  %10 = getelementptr inbounds i32, ptr %8, i64 %9
  ret ptr %10
}

; Function Attrs: mustprogress nounwind uwtable
define linkonce_odr noundef i32 @_ZN5Yosys5RTLIL8IdString13get_referenceEi(i32 noundef %0) #5 comdat align 2 {
  %2 = alloca i32, align 4
  store i32 %0, ptr %2, align 4
  %3 = load i32, ptr %2, align 4
  %4 = icmp ne i32 %3, 0
  br i1 %4, label %5, label %11

5:                                                ; preds = %1
  %6 = load i32, ptr %2, align 4
  %7 = sext i32 %6 to i64
  %8 = call noundef nonnull align 4 dereferenceable(4) ptr @_ZNSt6vectorIiSaIiEEixEm(ptr noundef nonnull align 8 dereferenceable(24) @_ZN5Yosys5RTLIL8IdString24global_refcount_storage_E, i64 noundef %7) #3
  %9 = load i32, ptr %8, align 4
  %10 = add nsw i32 %9, 1
  store i32 %10, ptr %8, align 4
  br label %11

11:                                               ; preds = %5, %1
  %12 = load i32, ptr %2, align 4
  ret i32 %12
}

; Function Attrs: mustprogress uwtable
define linkonce_odr void @_ZN5Yosys5RTLIL8IdStringC2ERKS1_(ptr noundef nonnull align 4 dereferenceable(4) %0, ptr noundef nonnull align 4 dereferenceable(4) %1) unnamed_addr #4 comdat align 2 {
  %3 = alloca ptr, align 8
  %4 = alloca ptr, align 8
  store ptr %0, ptr %3, align 8
  store ptr %1, ptr %4, align 8
  %5 = load ptr, ptr %3, align 8
  %6 = getelementptr inbounds %"struct.Yosys::RTLIL::IdString", ptr %5, i32 0, i32 0
  %7 = load ptr, ptr %4, align 8
  %8 = getelementptr inbounds %"struct.Yosys::RTLIL::IdString", ptr %7, i32 0, i32 0
  %9 = load i32, ptr %8, align 4
  %10 = call noundef i32 @_ZN5Yosys5RTLIL8IdString13get_referenceEi(i32 noundef %9)
  store i32 %10, ptr %6, align 4
  ret void
}

; Function Attrs: mustprogress uwtable
define internal void @_ZNSt4pairIN5Yosys5RTLIL8IdStringEN12_GLOBAL__N_17LUTTypeEEC2ERKS5_(ptr noundef nonnull align 8 dereferenceable(72) %0, ptr noundef nonnull align 8 dereferenceable(72) %1) unnamed_addr #4 align 2 personality ptr @__gxx_personality_v0 {
  %3 = alloca ptr, align 8
  %4 = alloca ptr, align 8
  %5 = alloca ptr, align 8
  %6 = alloca i32, align 4
  store ptr %0, ptr %3, align 8
  store ptr %1, ptr %4, align 8
  %7 = load ptr, ptr %3, align 8
  %8 = getelementptr inbounds %"struct.std::pair", ptr %7, i32 0, i32 0
  %9 = load ptr, ptr %4, align 8
  %10 = getelementptr inbounds %"struct.std::pair", ptr %9, i32 0, i32 0
  call void @_ZN5Yosys5RTLIL8IdStringC2ERKS1_(ptr noundef nonnull align 4 dereferenceable(4) %8, ptr noundef nonnull align 4 dereferenceable(4) %10)
  %11 = getelementptr inbounds %"struct.std::pair", ptr %7, i32 0, i32 2
  %12 = load ptr, ptr %4, align 8
  %13 = getelementptr inbounds %"struct.std::pair", ptr %12, i32 0, i32 2
  invoke void @_ZN12_GLOBAL__N_17LUTTypeC2ERKS0_(ptr noundef nonnull align 8 dereferenceable(60) %11, ptr noundef nonnull align 8 dereferenceable(60) %13)
          to label %14 unwind label %15

14:                                               ; preds = %2
  ret void

15:                                               ; preds = %2
  %16 = landingpad { ptr, i32 }
          cleanup
  %17 = extractvalue { ptr, i32 } %16, 0
  store ptr %17, ptr %5, align 8
  %18 = extractvalue { ptr, i32 } %16, 1
  store i32 %18, ptr %6, align 4
  call void @_ZN5Yosys5RTLIL8IdStringD2Ev(ptr noundef nonnull align 4 dereferenceable(4) %8) #3
  br label %19

19:                                               ; preds = %15
  %20 = load ptr, ptr %5, align 8
  %21 = load i32, ptr %6, align 4
  %22 = insertvalue { ptr, i32 } poison, ptr %20, 0
  %23 = insertvalue { ptr, i32 } %22, i32 %21, 1
  resume { ptr, i32 } %23
}

; Function Attrs: mustprogress uwtable
define internal void @_ZN5Yosys7hashlib4dictINS_5RTLIL8IdStringEN12_GLOBAL__N_17LUTTypeENS0_8hash_opsIS3_EEE7entry_tC2ERKS9_(ptr noundef nonnull align 8 dereferenceable(76) %0, ptr noundef nonnull align 8 dereferenceable(76) %1) unnamed_addr #4 align 2 {
  %3 = alloca ptr, align 8
  %4 = alloca ptr, align 8
  store ptr %0, ptr %3, align 8
  store ptr %1, ptr %4, align 8
  %5 = load ptr, ptr %3, align 8
  %6 = getelementptr inbounds %"struct.Yosys::hashlib::dict<Yosys::RTLIL::IdString, (anonymous namespace)::LUTType>::entry_t", ptr %5, i32 0, i32 0
  %7 = load ptr, ptr %4, align 8
  %8 = getelementptr inbounds %"struct.Yosys::hashlib::dict<Yosys::RTLIL::IdString, (anonymous namespace)::LUTType>::entry_t", ptr %7, i32 0, i32 0
  call void @_ZNSt4pairIN5Yosys5RTLIL8IdStringEN12_GLOBAL__N_17LUTTypeEEC2ERKS5_(ptr noundef nonnull align 8 dereferenceable(72) %6, ptr noundef nonnull align 8 dereferenceable(72) %8)
  %9 = getelementptr inbounds %"struct.Yosys::hashlib::dict<Yosys::RTLIL::IdString, (anonymous namespace)::LUTType>::entry_t", ptr %5, i32 0, i32 1
  %10 = load ptr, ptr %4, align 8
  %11 = getelementptr inbounds %"struct.Yosys::hashlib::dict<Yosys::RTLIL::IdString, (anonymous namespace)::LUTType>::entry_t", ptr %10, i32 0, i32 1
  %12 = load i32, ptr %11, align 8
  store i32 %12, ptr %9, align 8
  ret void
}

; Function Attrs: mustprogress uwtable
define internal void @_ZSt10_ConstructIN5Yosys7hashlib4dictINS0_5RTLIL8IdStringEN12_GLOBAL__N_17LUTTypeENS1_8hash_opsIS4_EEE7entry_tEJRKSA_EEvPT_DpOT0_(ptr noundef %0, ptr noundef nonnull align 8 dereferenceable(76) %1) #4 {
  %3 = alloca ptr, align 8
  %4 = alloca ptr, align 8
  store ptr %0, ptr %3, align 8
  store ptr %1, ptr %4, align 8
  %5 = load ptr, ptr %3, align 8
  %6 = load ptr, ptr %4, align 8
  call void @_ZN5Yosys7hashlib4dictINS_5RTLIL8IdStringEN12_GLOBAL__N_17LUTTypeENS0_8hash_opsIS3_EEE7entry_tC2ERKS9_(ptr noundef nonnull align 8 dereferenceable(76) %5, ptr noundef nonnull align 8 dereferenceable(76) %6)
  ret void
}

; Function Attrs: mustprogress uwtable
define internal noundef ptr @_ZSt16__do_uninit_copyIPKN5Yosys7hashlib4dictINS0_5RTLIL8IdStringEN12_GLOBAL__N_17LUTTypeENS1_8hash_opsIS4_EEE7entry_tEPSA_ET0_T_SF_SE_(ptr noundef %0, ptr noundef %1, ptr noundef %2) #4 personality ptr @__gxx_personality_v0 {
  %4 = alloca ptr, align 8
  %5 = alloca ptr, align 8
  %6 = alloca ptr, align 8
  %7 = alloca ptr, align 8
  %8 = alloca ptr, align 8
  %9 = alloca i32, align 4
  store ptr %0, ptr %4, align 8
  store ptr %1, ptr %5, align 8
  store ptr %2, ptr %6, align 8
  %10 = load ptr, ptr %6, align 8
  store ptr %10, ptr %7, align 8
  br label %11

11:                                               ; preds = %19, %3
  %12 = load ptr, ptr %4, align 8
  %13 = load ptr, ptr %5, align 8
  %14 = icmp ne ptr %12, %13
  br i1 %14, label %15, label %34

15:                                               ; preds = %11
  %16 = load ptr, ptr %7, align 8
  %17 = load ptr, ptr %4, align 8
  invoke void @_ZSt10_ConstructIN5Yosys7hashlib4dictINS0_5RTLIL8IdStringEN12_GLOBAL__N_17LUTTypeENS1_8hash_opsIS4_EEE7entry_tEJRKSA_EEvPT_DpOT0_(ptr noundef %16, ptr noundef nonnull align 8 dereferenceable(76) %17)
          to label %18 unwind label %24

18:                                               ; preds = %15
  br label %19

19:                                               ; preds = %18
  %20 = load ptr, ptr %4, align 8
  %21 = getelementptr inbounds %"struct.Yosys::hashlib::dict<Yosys::RTLIL::IdString, (anonymous namespace)::LUTType>::entry_t", ptr %20, i32 1
  store ptr %21, ptr %4, align 8
  %22 = load ptr, ptr %7, align 8
  %23 = getelementptr inbounds %"struct.Yosys::hashlib::dict<Yosys::RTLIL::IdString, (anonymous namespace)::LUTType>::entry_t", ptr %22, i32 1
  store ptr %23, ptr %7, align 8
  br label %11, !llvm.loop !37

24:                                               ; preds = %15
  %25 = landingpad { ptr, i32 }
          catch ptr null
  %26 = extractvalue { ptr, i32 } %25, 0
  store ptr %26, ptr %8, align 8
  %27 = extractvalue { ptr, i32 } %25, 1
  store i32 %27, ptr %9, align 4
  br label %28

28:                                               ; preds = %24
  %29 = load ptr, ptr %8, align 8
  %30 = call ptr @__cxa_begin_catch(ptr %29) #3
  %31 = load ptr, ptr %6, align 8
  %32 = load ptr, ptr %7, align 8
  invoke void @_ZSt8_DestroyIPN5Yosys7hashlib4dictINS0_5RTLIL8IdStringEN12_GLOBAL__N_17LUTTypeENS1_8hash_opsIS4_EEE7entry_tEEvT_SC_(ptr noundef %31, ptr noundef %32)
          to label %33 unwind label %36

33:                                               ; preds = %28
  invoke void @__cxa_rethrow() #14
          to label %50 unwind label %36

34:                                               ; preds = %11
  %35 = load ptr, ptr %7, align 8
  ret ptr %35

36:                                               ; preds = %33, %28
  %37 = landingpad { ptr, i32 }
          cleanup
  %38 = extractvalue { ptr, i32 } %37, 0
  store ptr %38, ptr %8, align 8
  %39 = extractvalue { ptr, i32 } %37, 1
  store i32 %39, ptr %9, align 4
  invoke void @__cxa_end_catch()
          to label %40 unwind label %47

40:                                               ; preds = %36
  br label %42

41:                                               ; No predecessors!
  call void @llvm.trap()
  unreachable

42:                                               ; preds = %40
  %43 = load ptr, ptr %8, align 8
  %44 = load i32, ptr %9, align 4
  %45 = insertvalue { ptr, i32 } poison, ptr %43, 0
  %46 = insertvalue { ptr, i32 } %45, i32 %44, 1
  resume { ptr, i32 } %46

47:                                               ; preds = %36
  %48 = landingpad { ptr, i32 }
          catch ptr null
  %49 = extractvalue { ptr, i32 } %48, 0
  call void @__clang_call_terminate(ptr %49) #13
  unreachable

50:                                               ; preds = %33
  unreachable
}

; Function Attrs: mustprogress uwtable
define internal noundef ptr @_ZNSt20__uninitialized_copyILb0EE13__uninit_copyIPKN5Yosys7hashlib4dictINS2_5RTLIL8IdStringEN12_GLOBAL__N_17LUTTypeENS3_8hash_opsIS6_EEE7entry_tEPSC_EET0_T_SH_SG_(ptr noundef %0, ptr noundef %1, ptr noundef %2) #4 align 2 {
  %4 = alloca ptr, align 8
  %5 = alloca ptr, align 8
  %6 = alloca ptr, align 8
  store ptr %0, ptr %4, align 8
  store ptr %1, ptr %5, align 8
  store ptr %2, ptr %6, align 8
  %7 = load ptr, ptr %4, align 8
  %8 = load ptr, ptr %5, align 8
  %9 = load ptr, ptr %6, align 8
  %10 = call noundef ptr @_ZSt16__do_uninit_copyIPKN5Yosys7hashlib4dictINS0_5RTLIL8IdStringEN12_GLOBAL__N_17LUTTypeENS1_8hash_opsIS4_EEE7entry_tEPSA_ET0_T_SF_SE_(ptr noundef %7, ptr noundef %8, ptr noundef %9)
  ret ptr %10
}

; Function Attrs: mustprogress uwtable
define internal noundef ptr @_ZSt18uninitialized_copyIPKN5Yosys7hashlib4dictINS0_5RTLIL8IdStringEN12_GLOBAL__N_17LUTTypeENS1_8hash_opsIS4_EEE7entry_tEPSA_ET0_T_SF_SE_(ptr noundef %0, ptr noundef %1, ptr noundef %2) #4 {
  %4 = alloca ptr, align 8
  %5 = alloca ptr, align 8
  %6 = alloca ptr, align 8
  %7 = alloca i8, align 1
  %8 = alloca i8, align 1
  store ptr %0, ptr %4, align 8
  store ptr %1, ptr %5, align 8
  store ptr %2, ptr %6, align 8
  store i8 0, ptr %7, align 1
  store i8 0, ptr %8, align 1
  %9 = load ptr, ptr %4, align 8
  %10 = load ptr, ptr %5, align 8
  %11 = load ptr, ptr %6, align 8
  %12 = call noundef ptr @_ZNSt20__uninitialized_copyILb0EE13__uninit_copyIPKN5Yosys7hashlib4dictINS2_5RTLIL8IdStringEN12_GLOBAL__N_17LUTTypeENS3_8hash_opsIS6_EEE7entry_tEPSC_EET0_T_SH_SG_(ptr noundef %9, ptr noundef %10, ptr noundef %11)
  ret ptr %12
}

; Function Attrs: mustprogress uwtable
define internal noundef ptr @_ZSt22__uninitialized_copy_aIPKN5Yosys7hashlib4dictINS0_5RTLIL8IdStringEN12_GLOBAL__N_17LUTTypeENS1_8hash_opsIS4_EEE7entry_tEPSA_SA_ET0_T_SF_SE_RSaIT1_E(ptr noundef %0, ptr noundef %1, ptr noundef %2, ptr noundef nonnull align 1 dereferenceable(1) %3) #4 {
  %5 = alloca ptr, align 8
  %6 = alloca ptr, align 8
  %7 = alloca ptr, align 8
  %8 = alloca ptr, align 8
  store ptr %0, ptr %5, align 8
  store ptr %1, ptr %6, align 8
  store ptr %2, ptr %7, align 8
  store ptr %3, ptr %8, align 8
  %9 = load ptr, ptr %5, align 8
  %10 = load ptr, ptr %6, align 8
  %11 = load ptr, ptr %7, align 8
  %12 = call noundef ptr @_ZSt18uninitialized_copyIPKN5Yosys7hashlib4dictINS0_5RTLIL8IdStringEN12_GLOBAL__N_17LUTTypeENS1_8hash_opsIS4_EEE7entry_tEPSA_ET0_T_SF_SE_(ptr noundef %9, ptr noundef %10, ptr noundef %11)
  ret ptr %12
}

; Function Attrs: mustprogress nounwind uwtable
define internal noundef ptr @_ZSt32__make_move_if_noexcept_iteratorIN5Yosys7hashlib4dictINS0_5RTLIL8IdStringEN12_GLOBAL__N_17LUTTypeENS1_8hash_opsIS4_EEE7entry_tEPKSA_ET0_PT_(ptr noundef %0) #5 {
  %2 = alloca ptr, align 8
  store ptr %0, ptr %2, align 8
  %3 = load ptr, ptr %2, align 8
  ret ptr %3
}

; Function Attrs: mustprogress uwtable
define internal noundef ptr @_ZSt34__uninitialized_move_if_noexcept_aIPN5Yosys7hashlib4dictINS0_5RTLIL8IdStringEN12_GLOBAL__N_17LUTTypeENS1_8hash_opsIS4_EEE7entry_tESB_SaISA_EET0_T_SE_SD_RT1_(ptr noundef %0, ptr noundef %1, ptr noundef %2, ptr noundef nonnull align 1 dereferenceable(1) %3) #4 {
  %5 = alloca ptr, align 8
  %6 = alloca ptr, align 8
  %7 = alloca ptr, align 8
  %8 = alloca ptr, align 8
  store ptr %0, ptr %5, align 8
  store ptr %1, ptr %6, align 8
  store ptr %2, ptr %7, align 8
  store ptr %3, ptr %8, align 8
  %9 = load ptr, ptr %5, align 8
  %10 = call noundef ptr @_ZSt32__make_move_if_noexcept_iteratorIN5Yosys7hashlib4dictINS0_5RTLIL8IdStringEN12_GLOBAL__N_17LUTTypeENS1_8hash_opsIS4_EEE7entry_tEPKSA_ET0_PT_(ptr noundef %9)
  %11 = load ptr, ptr %6, align 8
  %12 = call noundef ptr @_ZSt32__make_move_if_noexcept_iteratorIN5Yosys7hashlib4dictINS0_5RTLIL8IdStringEN12_GLOBAL__N_17LUTTypeENS1_8hash_opsIS4_EEE7entry_tEPKSA_ET0_PT_(ptr noundef %11)
  %13 = load ptr, ptr %7, align 8
  %14 = load ptr, ptr %8, align 8
  %15 = call noundef ptr @_ZSt22__uninitialized_copy_aIPKN5Yosys7hashlib4dictINS0_5RTLIL8IdStringEN12_GLOBAL__N_17LUTTypeENS1_8hash_opsIS4_EEE7entry_tEPSA_SA_ET0_T_SF_SE_RSaIT1_E(ptr noundef %10, ptr noundef %12, ptr noundef %13, ptr noundef nonnull align 1 dereferenceable(1) %14)
  ret ptr %15
}