; Function Attrs: mustprogress uwtable
define internal fastcc noundef ptr @_ZSt34__uninitialized_move_if_noexcept_aIPN5Yosys7hashlib4dictINS0_5RTLIL8IdStringEN12_GLOBAL__N_17LUTTypeENS1_8hash_opsIS4_EEE7entry_tESB_SaISA_EET0_T_SE_SD_RT1_(ptr noundef %0, ptr noundef readnone %1, ptr noundef %2) unnamed_addr #4 personality ptr @__gxx_personality_v0 {
  %.not14.i.i.i.i = icmp eq ptr %0, %1
  br i1 %.not14.i.i.i.i, label %_ZSt22__uninitialized_copy_aIPKN5Yosys7hashlib4dictINS0_5RTLIL8IdStringEN12_GLOBAL__N_17LUTTypeENS1_8hash_opsIS4_EEE7entry_tEPSA_SA_ET0_T_SF_SE_RSaIT1_E.exit, label %.lr.ph.i.i.i.i

.lr.ph.i.i.i.i:                                   ; preds = %3, %16
  %.016.i.i.i.i = phi ptr [ %21, %16 ], [ %2, %3 ]
  %.01215.i.i.i.i = phi ptr [ %20, %16 ], [ %0, %3 ]
  %4 = load i32, ptr %.01215.i.i.i.i, align 4
  %.not.i.i.i.i.i.i.i.i.i = icmp eq i32 %4, 0
  br i1 %.not.i.i.i.i.i.i.i.i.i, label %_ZN5Yosys5RTLIL8IdStringC2ERKS1_.exit.i.i.i.i.i.i.i, label %5

5:                                                ; preds = %.lr.ph.i.i.i.i
  %6 = sext i32 %4 to i64
  %7 = load ptr, ptr @_ZN5Yosys5RTLIL8IdString24global_refcount_storage_E, align 8
  %8 = getelementptr inbounds i32, ptr %7, i64 %6
  %9 = load i32, ptr %8, align 4
  %10 = add nsw i32 %9, 1
  store i32 %10, ptr %8, align 4
  br label %_ZN5Yosys5RTLIL8IdStringC2ERKS1_.exit.i.i.i.i.i.i.i

_ZN5Yosys5RTLIL8IdStringC2ERKS1_.exit.i.i.i.i.i.i.i: ; preds = %5, %.lr.ph.i.i.i.i
  store i32 %4, ptr %.016.i.i.i.i, align 4
  %11 = getelementptr inbounds i8, ptr %.016.i.i.i.i, i64 8
  %12 = getelementptr inbounds i8, ptr %.01215.i.i.i.i, i64 8
  invoke fastcc void @_ZN12_GLOBAL__N_17LUTTypeC2ERKS0_(ptr noundef nonnull align 8 dereferenceable(60) %11, ptr noundef nonnull align 8 dereferenceable(60) %12)
          to label %16 unwind label %.body.i.i.i.i

.body.i.i.i.i:                                    ; preds = %_ZN5Yosys5RTLIL8IdStringC2ERKS1_.exit.i.i.i.i.i.i.i
  %13 = landingpad { ptr, i32 }
          catch ptr null
  tail call void @_ZN5Yosys5RTLIL8IdStringD2Ev(ptr noundef nonnull align 4 dereferenceable(4) %.016.i.i.i.i) #18
  %14 = extractvalue { ptr, i32 } %13, 0
  %15 = tail call ptr @__cxa_begin_catch(ptr %14) #18
  tail call fastcc void @_ZSt8_DestroyIPN5Yosys7hashlib4dictINS0_5RTLIL8IdStringEN12_GLOBAL__N_17LUTTypeENS1_8hash_opsIS4_EEE7entry_tEEvT_SC_(ptr noundef %2, ptr noundef nonnull %.016.i.i.i.i)
  invoke void @__cxa_rethrow() #20
          to label %28 unwind label %22

16:                                               ; preds = %_ZN5Yosys5RTLIL8IdStringC2ERKS1_.exit.i.i.i.i.i.i.i
  %17 = getelementptr inbounds i8, ptr %.016.i.i.i.i, i64 72
  %18 = getelementptr inbounds i8, ptr %.01215.i.i.i.i, i64 72
  %19 = load i32, ptr %18, align 8
  store i32 %19, ptr %17, align 8
  %20 = getelementptr inbounds i8, ptr %.01215.i.i.i.i, i64 80
  %21 = getelementptr inbounds i8, ptr %.016.i.i.i.i, i64 80
  %.not.i.i.i.i = icmp eq ptr %20, %1
  br i1 %.not.i.i.i.i, label %_ZSt22__uninitialized_copy_aIPKN5Yosys7hashlib4dictINS0_5RTLIL8IdStringEN12_GLOBAL__N_17LUTTypeENS1_8hash_opsIS4_EEE7entry_tEPSA_SA_ET0_T_SF_SE_RSaIT1_E.exit, label %.lr.ph.i.i.i.i, !llvm.loop !169

22:                                               ; preds = %.body.i.i.i.i
  %23 = landingpad { ptr, i32 }
          cleanup
  invoke void @__cxa_end_catch()
          to label %24 unwind label %25

24:                                               ; preds = %22
  resume { ptr, i32 } %23

25:                                               ; preds = %22
  %26 = landingpad { ptr, i32 }
          catch ptr null
  %27 = extractvalue { ptr, i32 } %26, 0
  tail call void @__clang_call_terminate(ptr %27) #22
  unreachable

28:                                               ; preds = %.body.i.i.i.i
  unreachable

_ZSt22__uninitialized_copy_aIPKN5Yosys7hashlib4dictINS0_5RTLIL8IdStringEN12_GLOBAL__N_17LUTTypeENS1_8hash_opsIS4_EEE7entry_tEPSA_SA_ET0_T_SF_SE_RSaIT1_E.exit: ; preds = %16, %3
  %.0.lcssa.i.i.i.i = phi ptr [ %2, %3 ], [ %21, %16 ]
  ret ptr %.0.lcssa.i.i.i.i
}